target datalayout = "e-m:e-p270:32:32-p271:32:32-p272:64:64-i64:64-i128:128-f80:128-n8:16:32:64-S128"
target triple = "x86_64-pc-linux-gnu"

%class.rational = type { %class.mpq }
%class.mpq = type { %class.mpz, %class.mpz }
%class.mpz = type { i32, i8, ptr }
%"struct.lp::numeric_pair" = type { %class.rational, %class.rational }

@.str.10 = private unnamed_addr constant [110 x i8] c"generated/home/dtcxzyw/WorkSpace/Projects/compilers/llvm-opt-benchmark/bench/z3/z3/src/math/lp/lar_solver.cpp\00", align 1
@.str.11 = private unnamed_addr constant [29 x i8] c"UNEXPECTED CODE WAS REACHED.\00", align 1
@_ZN8rational13g_mpq_managerE = external global ptr, align 8

; Function Attrs: inlinehint mustprogress nounwind uwtable
define linkonce_odr hidden noundef zeroext i1 @_ZNK3mpz8is_smallEv(ptr noundef nonnull align 8 dereferenceable(16) %0) #7 comdat align 2 {
  %2 = alloca ptr, align 8
  store ptr %0, ptr %2, align 8, !tbaa !845
  %3 = load ptr, ptr %2, align 8
  %4 = getelementptr inbounds nuw %class.mpz, ptr %3, i32 0, i32 1
  %5 = load i8, ptr %4, align 4
  %6 = and i8 %5, 1
  %7 = zext i8 %6 to i32
  %8 = icmp eq i32 %7, 0
  ret i1 %8
}

; Function Attrs: inlinehint mustprogress nounwind uwtable
define linkonce_odr hidden noundef i32 @_ZNK3mpz5valueEv(ptr noundef nonnull align 8 dereferenceable(16) %0) #7 comdat align 2 {
  %2 = alloca ptr, align 8
  store ptr %0, ptr %2, align 8, !tbaa !845
  %3 = load ptr, ptr %2, align 8
  %4 = getelementptr inbounds nuw %class.mpz, ptr %3, i32 0, i32 0
  %5 = load i32, ptr %4, align 8, !tbaa !847
  ret i32 %5
}

; Function Attrs: mustprogress uwtable
define linkonce_odr hidden noundef zeroext i1 @_ZN11mpz_managerILb1EE8is_smallERK3mpz(ptr noundef nonnull align 8 dereferenceable(16) %0) #6 comdat align 2 {
  %2 = alloca ptr, align 8
  store ptr %0, ptr %2, align 8, !tbaa !845
  %3 = load ptr, ptr %2, align 8, !tbaa !845
  %4 = call noundef zeroext i1 @_ZNK3mpz8is_smallEv(ptr noundef nonnull align 8 dereferenceable(16) %3)
  ret i1 %4
}

; Function Attrs: mustprogress uwtable
define linkonce_odr hidden noundef zeroext i1 @_ZN11mpz_managerILb1EE2eqERK3mpzS3_(ptr noundef nonnull align 8 dereferenceable(600) %0, ptr noundef nonnull align 8 dereferenceable(16) %1, ptr noundef nonnull align 8 dereferenceable(16) %2) #6 comdat align 2 {
  %4 = alloca i1, align 1
  %5 = alloca ptr, align 8
  %6 = alloca ptr, align 8
  %7 = alloca ptr, align 8
  store ptr %0, ptr %5, align 8, !tbaa !1039
  store ptr %1, ptr %6, align 8, !tbaa !845
  store ptr %2, ptr %7, align 8, !tbaa !845
  %8 = load ptr, ptr %5, align 8
  %9 = load ptr, ptr %6, align 8, !tbaa !845
  %10 = call noundef zeroext i1 @_ZN11mpz_managerILb1EE8is_smallERK3mpz(ptr noundef nonnull align 8 dereferenceable(16) %9)
  br i1 %10, label %11, label %20

11:                                               ; preds = %3
  %12 = load ptr, ptr %7, align 8, !tbaa !845
  %13 = call noundef zeroext i1 @_ZN11mpz_managerILb1EE8is_smallERK3mpz(ptr noundef nonnull align 8 dereferenceable(16) %12)
  br i1 %13, label %14, label %20

14:                                               ; preds = %11
  %15 = load ptr, ptr %6, align 8, !tbaa !845
  %16 = call noundef i32 @_ZNK3mpz5valueEv(ptr noundef nonnull align 8 dereferenceable(16) %15)
  %17 = load ptr, ptr %7, align 8, !tbaa !845
  %18 = call noundef i32 @_ZNK3mpz5valueEv(ptr noundef nonnull align 8 dereferenceable(16) %17)
  %19 = icmp eq i32 %16, %18
  store i1 %19, ptr %4, align 1
  br label %25

20:                                               ; preds = %11, %3
  %21 = load ptr, ptr %6, align 8, !tbaa !845
  %22 = load ptr, ptr %7, align 8, !tbaa !845
  %23 = call noundef i32 @_ZN11mpz_managerILb1EE11big_compareERK3mpzS3_(ptr noundef nonnull align 8 dereferenceable(600) %8, ptr noundef nonnull align 8 dereferenceable(16) %21, ptr noundef nonnull align 8 dereferenceable(16) %22)
  %24 = icmp eq i32 %23, 0
  store i1 %24, ptr %4, align 1
  br label %25

25:                                               ; preds = %20, %14
  %26 = load i1, ptr %4, align 1
  ret i1 %26
}

; Function Attrs: mustprogress uwtable
define linkonce_odr hidden noundef zeroext i1 @_ZN11mpq_managerILb1EE2eqERK3mpzS3_(ptr noundef nonnull align 8 dereferenceable(728) %0, ptr noundef nonnull align 8 dereferenceable(16) %1, ptr noundef nonnull align 8 dereferenceable(16) %2) #6 comdat align 2 {
  %4 = alloca ptr, align 8
  %5 = alloca ptr, align 8
  %6 = alloca ptr, align 8
  store ptr %0, ptr %4, align 8, !tbaa !292
  store ptr %1, ptr %5, align 8, !tbaa !845
  store ptr %2, ptr %6, align 8, !tbaa !845
  %7 = load ptr, ptr %4, align 8
  %8 = load ptr, ptr %5, align 8, !tbaa !845
  %9 = load ptr, ptr %6, align 8, !tbaa !845
  %10 = call noundef zeroext i1 @_ZN11mpz_managerILb1EE2eqERK3mpzS3_(ptr noundef nonnull align 8 dereferenceable(600) %7, ptr noundef nonnull align 8 dereferenceable(16) %8, ptr noundef nonnull align 8 dereferenceable(16) %9)
  ret i1 %10
}

; Function Attrs: mustprogress uwtable
define linkonce_odr hidden noundef zeroext i1 @_ZN11mpq_managerILb1EE2eqERK3mpqS3_(ptr noundef nonnull align 8 dereferenceable(728) %0, ptr noundef nonnull align 8 dereferenceable(32) %1, ptr noundef nonnull align 8 dereferenceable(32) %2) #6 comdat align 2 {
  %4 = alloca ptr, align 8
  %5 = alloca ptr, align 8
  %6 = alloca ptr, align 8
  store ptr %0, ptr %4, align 8, !tbaa !292
  store ptr %1, ptr %5, align 8, !tbaa !843
  store ptr %2, ptr %6, align 8, !tbaa !843
  %7 = load ptr, ptr %4, align 8
  %8 = load ptr, ptr %5, align 8, !tbaa !843
  %9 = getelementptr inbounds nuw %class.mpq, ptr %8, i32 0, i32 0
  %10 = load ptr, ptr %6, align 8, !tbaa !843
  %11 = getelementptr inbounds nuw %class.mpq, ptr %10, i32 0, i32 0
  %12 = call noundef zeroext i1 @_ZN11mpq_managerILb1EE2eqERK3mpzS3_(ptr noundef nonnull align 8 dereferenceable(728) %7, ptr noundef nonnull align 8 dereferenceable(16) %9, ptr noundef nonnull align 8 dereferenceable(16) %11)
  br i1 %12, label %13, label %19

13:                                               ; preds = %3
  %14 = load ptr, ptr %5, align 8, !tbaa !843
  %15 = getelementptr inbounds nuw %class.mpq, ptr %14, i32 0, i32 1
  %16 = load ptr, ptr %6, align 8, !tbaa !843
  %17 = getelementptr inbounds nuw %class.mpq, ptr %16, i32 0, i32 1
  %18 = call noundef zeroext i1 @_ZN11mpq_managerILb1EE2eqERK3mpzS3_(ptr noundef nonnull align 8 dereferenceable(728) %7, ptr noundef nonnull align 8 dereferenceable(16) %15, ptr noundef nonnull align 8 dereferenceable(16) %17)
  br label %19

19:                                               ; preds = %13, %3
  %20 = phi i1 [ false, %3 ], [ %18, %13 ]
  ret i1 %20
}

; Function Attrs: mustprogress nounwind uwtable
define linkonce_odr hidden noundef nonnull align 8 dereferenceable(728) ptr @_ZN8rational1mEv() #4 comdat align 2 {
  %1 = load ptr, ptr @_ZN8rational13g_mpq_managerE, align 8, !tbaa !292
  ret ptr %1
}

; Function Attrs: inlinehint mustprogress uwtable
define linkonce_odr hidden noundef zeroext i1 @_ZeqRK8rationalS1_(ptr noundef nonnull align 8 dereferenceable(32) %0, ptr noundef nonnull align 8 dereferenceable(32) %1) #8 comdat {
  %3 = alloca ptr, align 8
  %4 = alloca ptr, align 8
  store ptr %0, ptr %3, align 8, !tbaa !266
  store ptr %1, ptr %4, align 8, !tbaa !266
  %5 = call noundef nonnull align 8 dereferenceable(728) ptr @_ZN8rational1mEv()
  %6 = load ptr, ptr %3, align 8, !tbaa !266
  %7 = getelementptr inbounds nuw %class.rational, ptr %6, i32 0, i32 0
  %8 = load ptr, ptr %4, align 8, !tbaa !266
  %9 = getelementptr inbounds nuw %class.rational, ptr %8, i32 0, i32 0
  %10 = call noundef zeroext i1 @_ZN11mpq_managerILb1EE2eqERK3mpqS3_(ptr noundef nonnull align 8 dereferenceable(728) %5, ptr noundef nonnull align 8 dereferenceable(32) %7, ptr noundef nonnull align 8 dereferenceable(32) %9)
  ret i1 %10
}

; Function Attrs: mustprogress uwtable
define linkonce_odr hidden noundef zeroext i1 @_ZNK2lp12numeric_pairI8rationalEeqERKS1_(ptr noundef nonnull align 8 dereferenceable(64) %0, ptr noundef nonnull align 8 dereferenceable(32) %1) #6 comdat align 2 {
  %3 = alloca ptr, align 8
  %4 = alloca ptr, align 8
  store ptr %0, ptr %3, align 8, !tbaa !312
  store ptr %1, ptr %4, align 8, !tbaa !266
  %5 = load ptr, ptr %3, align 8
  %6 = load ptr, ptr %4, align 8, !tbaa !266
  %7 = getelementptr inbounds nuw %"struct.lp::numeric_pair", ptr %5, i32 0, i32 0
  %8 = call noundef zeroext i1 @_ZeqRK8rationalS1_(ptr noundef nonnull align 8 dereferenceable(32) %6, ptr noundef nonnull align 8 dereferenceable(32) %7)
  br i1 %8, label %9, label %12

9:                                                ; preds = %2
  %10 = getelementptr inbounds nuw %"struct.lp::numeric_pair", ptr %5, i32 0, i32 1
  %11 = call noundef zeroext i1 @_ZeqRK8rationali(ptr noundef nonnull align 8 dereferenceable(32) %10, i32 noundef 0)
  br label %12

12:                                               ; preds = %9, %2
  %13 = phi i1 [ false, %2 ], [ %11, %9 ]
  ret i1 %13
}

; Function Attrs: mustprogress uwtable
define hidden noundef zeroext i1 @_ZN2lp10lar_solver14compare_valuesERKNS_12numeric_pairI8rationalEENS_16lconstraint_kindERKS2_(ptr noundef nonnull align 8 dereferenceable(2128) %0, ptr noundef nonnull align 8 dereferenceable(64) %1, i32 noundef %2, ptr noundef nonnull align 8 dereferenceable(32) %3) #6 align 2 {
  %5 = alloca i1, align 1
  %6 = alloca ptr, align 8
  %7 = alloca ptr, align 8
  %8 = alloca i32, align 4
  %9 = alloca ptr, align 8
  store ptr %0, ptr %6, align 8, !tbaa !16
  store ptr %1, ptr %7, align 8, !tbaa !312
  store i32 %2, ptr %8, align 4, !tbaa !308
  store ptr %3, ptr %9, align 8, !tbaa !266
  %10 = load i32, ptr %8, align 4, !tbaa !308
  switch i32 %10, label %31 [
    i32 -1, label %11
    i32 -2, label %15
    i32 1, label %19
    i32 2, label %23
    i32 0, label %27
  ]

11:                                               ; preds = %4
  %12 = load ptr, ptr %7, align 8, !tbaa !312
  %13 = load ptr, ptr %9, align 8, !tbaa !266
  %14 = call noundef zeroext i1 @_ZNK2lp12numeric_pairI8rationalEltERKS1_(ptr noundef nonnull align 8 dereferenceable(64) %12, ptr noundef nonnull align 8 dereferenceable(32) %13)
  store i1 %14, ptr %5, align 1
  br label %32

15:                                               ; preds = %4
  %16 = load ptr, ptr %7, align 8, !tbaa !312
  %17 = load ptr, ptr %9, align 8, !tbaa !266
  %18 = call noundef zeroext i1 @_ZNK2lp12numeric_pairI8rationalEleERKS1_(ptr noundef nonnull align 8 dereferenceable(64) %16, ptr noundef nonnull align 8 dereferenceable(32) %17)
  store i1 %18, ptr %5, align 1
  br label %32

19:                                               ; preds = %4
  %20 = load ptr, ptr %7, align 8, !tbaa !312
  %21 = load ptr, ptr %9, align 8, !tbaa !266
  %22 = call noundef zeroext i1 @_ZNK2lp12numeric_pairI8rationalEgtERKS1_(ptr noundef nonnull align 8 dereferenceable(64) %20, ptr noundef nonnull align 8 dereferenceable(32) %21)
  store i1 %22, ptr %5, align 1
  br label %32

23:                                               ; preds = %4
  %24 = load ptr, ptr %7, align 8, !tbaa !312
  %25 = load ptr, ptr %9, align 8, !tbaa !266
  %26 = call noundef zeroext i1 @_ZNK2lp12numeric_pairI8rationalEgeERKS1_(ptr noundef nonnull align 8 dereferenceable(64) %24, ptr noundef nonnull align 8 dereferenceable(32) %25)
  store i1 %26, ptr %5, align 1
  br label %32

27:                                               ; preds = %4
  %28 = load ptr, ptr %7, align 8, !tbaa !312
  %29 = load ptr, ptr %9, align 8, !tbaa !266
  %30 = call noundef zeroext i1 @_ZNK2lp12numeric_pairI8rationalEeqERKS1_(ptr noundef nonnull align 8 dereferenceable(64) %28, ptr noundef nonnull align 8 dereferenceable(32) %29)
  store i1 %30, ptr %5, align 1
  br label %32

31:                                               ; preds = %4
  call void @_Z26notify_assertion_violationPKciS0_(ptr noundef @.str.10, i32 noundef 1875, ptr noundef @.str.11)
  call void @_Z18invoke_exit_actionj(i32 noundef 114)
  store i1 true, ptr %5, align 1
  br label %32

32:                                               ; preds = %31, %27, %23, %19, %15, %11
  %33 = load i1, ptr %5, align 1
  ret i1 %33
}