; Function Attrs: mustprogress uwtable
define hidden noundef zeroext i1 @_ZN2lp10lar_solver14compare_valuesERKNS_12numeric_pairI8rationalEENS_16lconstraint_kindERKS2_(ptr nonnull readnone align 8 captures(none) %0, ptr noundef nonnull align 8 dereferenceable(64) %1, i32 noundef %2, ptr noundef nonnull align 8 dereferenceable(32) %3) local_unnamed_addr #5 align 2 {
  switch i32 %2, label %51 [
    i32 -1, label %5
    i32 -2, label %7
    i32 1, label %9
    i32 2, label %11
    i32 0, label %13
  ]

5:                                                ; preds = %4
  %6 = tail call noundef zeroext i1 @_ZNK2lp12numeric_pairI8rationalEltERKS1_(ptr noundef nonnull align 8 dereferenceable(64) %1, ptr noundef nonnull align 8 dereferenceable(32) %3)
  br label %_ZNK2lp12numeric_pairI8rationalEeqERKS1_.exit

7:                                                ; preds = %4
  %8 = tail call noundef zeroext i1 @_ZNK2lp12numeric_pairI8rationalEleERKS1_(ptr noundef nonnull align 8 dereferenceable(64) %1, ptr noundef nonnull align 8 dereferenceable(32) %3)
  br label %_ZNK2lp12numeric_pairI8rationalEeqERKS1_.exit

9:                                                ; preds = %4
  %10 = tail call noundef zeroext i1 @_ZNK2lp12numeric_pairI8rationalEgtERKS1_(ptr noundef nonnull align 8 dereferenceable(64) %1, ptr noundef nonnull align 8 dereferenceable(32) %3)
  br label %_ZNK2lp12numeric_pairI8rationalEeqERKS1_.exit

11:                                               ; preds = %4
  %12 = tail call noundef zeroext i1 @_ZNK2lp12numeric_pairI8rationalEgeERKS1_(ptr noundef nonnull align 8 dereferenceable(64) %1, ptr noundef nonnull align 8 dereferenceable(32) %3)
  br label %_ZNK2lp12numeric_pairI8rationalEeqERKS1_.exit

13:                                               ; preds = %4
  %14 = load ptr, ptr @_ZN8rational13g_mpq_managerE, align 8, !tbaa !248
  %15 = getelementptr inbounds nuw i8, ptr %3, i64 4
  %16 = load i8, ptr %15, align 4
  %17 = and i8 %16, 1
  %18 = icmp eq i8 %17, 0
  br i1 %18, label %19, label %_ZN11mpq_managerILb1EE2eqERK3mpzS3_.exit.i.i.i

19:                                               ; preds = %13
  %20 = getelementptr inbounds nuw i8, ptr %1, i64 4
  %21 = load i8, ptr %20, align 4
  %22 = and i8 %21, 1
  %23 = icmp eq i8 %22, 0
  br i1 %23, label %24, label %_ZN11mpq_managerILb1EE2eqERK3mpzS3_.exit.i.i.i

24:                                               ; preds = %19
  %25 = load i32, ptr %3, align 8, !tbaa !235
  %26 = load i32, ptr %1, align 8, !tbaa !235
  %27 = icmp eq i32 %25, %26
  br i1 %27, label %30, label %_ZNK2lp12numeric_pairI8rationalEeqERKS1_.exit

_ZN11mpq_managerILb1EE2eqERK3mpzS3_.exit.i.i.i:   ; preds = %19, %13
  %28 = tail call noundef i32 @_ZN11mpz_managerILb1EE11big_compareERK3mpzS3_(ptr noundef nonnull align 8 dereferenceable(728) %14, ptr noundef nonnull align 8 dereferenceable(32) %3, ptr noundef nonnull align 8 dereferenceable(64) %1)
  %29 = icmp eq i32 %28, 0
  br i1 %29, label %30, label %_ZNK2lp12numeric_pairI8rationalEeqERKS1_.exit

30:                                               ; preds = %_ZN11mpq_managerILb1EE2eqERK3mpzS3_.exit.i.i.i, %24
  %31 = getelementptr inbounds nuw i8, ptr %3, i64 16
  %32 = getelementptr inbounds nuw i8, ptr %1, i64 16
  %33 = getelementptr inbounds nuw i8, ptr %3, i64 20
  %34 = load i8, ptr %33, align 4
  %35 = and i8 %34, 1
  %36 = icmp eq i8 %35, 0
  br i1 %36, label %37, label %_ZeqRK8rationalS1_.exit.i

37:                                               ; preds = %30
  %38 = getelementptr inbounds nuw i8, ptr %1, i64 20
  %39 = load i8, ptr %38, align 4
  %40 = and i8 %39, 1
  %41 = icmp eq i8 %40, 0
  br i1 %41, label %42, label %_ZeqRK8rationalS1_.exit.i

42:                                               ; preds = %37
  %43 = load i32, ptr %31, align 8, !tbaa !235
  %44 = load i32, ptr %32, align 8, !tbaa !235
  %45 = icmp eq i32 %43, %44
  br i1 %45, label %48, label %_ZNK2lp12numeric_pairI8rationalEeqERKS1_.exit

_ZeqRK8rationalS1_.exit.i:                        ; preds = %37, %30
  %46 = tail call noundef i32 @_ZN11mpz_managerILb1EE11big_compareERK3mpzS3_(ptr noundef nonnull align 8 dereferenceable(728) %14, ptr noundef nonnull align 8 dereferenceable(16) %31, ptr noundef nonnull align 8 dereferenceable(16) %32)
  %47 = icmp eq i32 %46, 0
  br i1 %47, label %48, label %_ZNK2lp12numeric_pairI8rationalEeqERKS1_.exit

48:                                               ; preds = %_ZeqRK8rationalS1_.exit.i, %42
  %49 = getelementptr inbounds nuw i8, ptr %1, i64 32
  %50 = tail call noundef zeroext i1 @_ZeqRK8rationali(ptr noundef nonnull align 8 dereferenceable(32) %49, i32 noundef 0)
  br label %_ZNK2lp12numeric_pairI8rationalEeqERKS1_.exit

51:                                               ; preds = %4
  tail call void @_Z26notify_assertion_violationPKciS0_(ptr noundef nonnull @.str.10, i32 noundef 1875, ptr noundef nonnull @.str.11)
  tail call void @_Z18invoke_exit_actionj(i32 noundef 114)
  br label %_ZNK2lp12numeric_pairI8rationalEeqERKS1_.exit

_ZNK2lp12numeric_pairI8rationalEeqERKS1_.exit:    ; preds = %48, %_ZeqRK8rationalS1_.exit.i, %42, %_ZN11mpq_managerILb1EE2eqERK3mpzS3_.exit.i.i.i, %24, %51, %11, %9, %7, %5
  %.0 = phi i1 [ true, %51 ], [ %12, %11 ], [ %10, %9 ], [ %8, %7 ], [ %6, %5 ], [ false, %_ZeqRK8rationalS1_.exit.i ], [ %50, %48 ], [ false, %42 ], [ false, %_ZN11mpq_managerILb1EE2eqERK3mpzS3_.exit.i.i.i ], [ false, %24 ]
  ret i1 %.0
}